target datalayout = "e-m:e-p270:32:32-p271:32:32-p272:64:64-i64:64-i128:128-f80:128-n8:16:32:64-S128"
target triple = "x86_64-pc-linux-gnu"

%"class.Ipopt::ReferencedObject.base" = type <{ ptr, i32 }>
%"class.Ipopt::GenTMatrixSpace" = type { %"class.Ipopt::MatrixSpace.base", i32, ptr, ptr }
%"class.Ipopt::MatrixSpace.base" = type { %"class.Ipopt::ReferencedObject.base", i32, i32 }
%"class.Ipopt::MatrixSpace" = type { %"class.Ipopt::ReferencedObject.base", i32, i32, [4 x i8] }
%"class.Ipopt::ReferencedObject" = type <{ ptr, i32, [4 x i8] }>

@_ZTVN5Ipopt15GenTMatrixSpaceE = linkonce_odr unnamed_addr constant { [5 x ptr] } { [5 x ptr] [ptr null, ptr @_ZTIN5Ipopt15GenTMatrixSpaceE, ptr @_ZN5Ipopt15GenTMatrixSpaceD2Ev, ptr @_ZN5Ipopt15GenTMatrixSpaceD0Ev, ptr @_ZNK5Ipopt15GenTMatrixSpace7MakeNewEv] }, comdat, align 8
@_ZTVN5Ipopt16ReferencedObjectE = linkonce_odr unnamed_addr constant { [4 x ptr] } { [4 x ptr] [ptr null, ptr @_ZTIN5Ipopt16ReferencedObjectE, ptr @_ZN5Ipopt16ReferencedObjectD2Ev, ptr @_ZN5Ipopt16ReferencedObjectD0Ev] }, comdat, align 8
@_ZTVN5Ipopt11MatrixSpaceE = linkonce_odr unnamed_addr constant { [5 x ptr] } { [5 x ptr] [ptr null, ptr @_ZTIN5Ipopt11MatrixSpaceE, ptr @_ZN5Ipopt11MatrixSpaceD2Ev, ptr @_ZN5Ipopt11MatrixSpaceD0Ev, ptr @__cxa_pure_virtual] }, comdat, align 8

; Function Attrs: mustprogress nounwind uwtable
define linkonce_odr void @_ZN5Ipopt16ReferencedObjectD2Ev(ptr noundef nonnull align 8 dereferenceable(12) %0) unnamed_addr #1 comdat align 2 {
  %2 = alloca ptr, align 8
  store ptr %0, ptr %2, align 8
  %3 = load ptr, ptr %2, align 8
  store ptr getelementptr inbounds ({ [4 x ptr] }, ptr @_ZTVN5Ipopt16ReferencedObjectE, i32 0, i32 0, i32 2), ptr %3, align 8
  ret void
}

; Function Attrs: mustprogress nounwind uwtable
define linkonce_odr void @_ZN5Ipopt16ReferencedObjectC2Ev(ptr noundef nonnull align 8 dereferenceable(12) %0) unnamed_addr #1 comdat align 2 {
  %2 = alloca ptr, align 8
  store ptr %0, ptr %2, align 8
  %3 = load ptr, ptr %2, align 8
  store ptr getelementptr inbounds ({ [4 x ptr] }, ptr @_ZTVN5Ipopt16ReferencedObjectE, i32 0, i32 0, i32 2), ptr %3, align 8
  %4 = getelementptr inbounds %"class.Ipopt::ReferencedObject", ptr %3, i32 0, i32 1
  store i32 0, ptr %4, align 8
  ret void
}

; Function Attrs: mustprogress nounwind uwtable
define linkonce_odr void @_ZN5Ipopt11MatrixSpaceD2Ev(ptr noundef nonnull align 8 dereferenceable(20) %0) unnamed_addr #1 comdat align 2 {
  %2 = alloca ptr, align 8
  store ptr %0, ptr %2, align 8
  %3 = load ptr, ptr %2, align 8
  call void @_ZN5Ipopt16ReferencedObjectD2Ev(ptr noundef nonnull align 8 dereferenceable(12) %3) #11
  ret void
}

; Function Attrs: mustprogress nounwind uwtable
define linkonce_odr void @_ZN5Ipopt11MatrixSpaceC2Eii(ptr noundef nonnull align 8 dereferenceable(20) %0, i32 noundef %1, i32 noundef %2) unnamed_addr #1 comdat align 2 {
  %4 = alloca ptr, align 8
  %5 = alloca i32, align 4
  %6 = alloca i32, align 4
  store ptr %0, ptr %4, align 8
  store i32 %1, ptr %5, align 4
  store i32 %2, ptr %6, align 4
  %7 = load ptr, ptr %4, align 8
  call void @_ZN5Ipopt16ReferencedObjectC2Ev(ptr noundef nonnull align 8 dereferenceable(12) %7)
  store ptr getelementptr inbounds ({ [5 x ptr] }, ptr @_ZTVN5Ipopt11MatrixSpaceE, i32 0, i32 0, i32 2), ptr %7, align 8
  %8 = getelementptr inbounds %"class.Ipopt::MatrixSpace", ptr %7, i32 0, i32 1
  %9 = load i32, ptr %5, align 4
  store i32 %9, ptr %8, align 4
  %10 = getelementptr inbounds %"class.Ipopt::MatrixSpace", ptr %7, i32 0, i32 2
  %11 = load i32, ptr %6, align 4
  store i32 %11, ptr %10, align 8
  ret void
}

; Function Attrs: mustprogress uwtable
define void @_ZN5Ipopt15GenTMatrixSpaceC2EiiiPKiS2_(ptr noundef nonnull align 8 dereferenceable(40) %0, i32 noundef %1, i32 noundef %2, i32 noundef %3, ptr noundef %4, ptr noundef %5) unnamed_addr #0 align 2 personality ptr @__gxx_personality_v0 {
  %7 = alloca ptr, align 8
  %8 = alloca i32, align 4
  %9 = alloca i32, align 4
  %10 = alloca i32, align 4
  %11 = alloca ptr, align 8
  %12 = alloca ptr, align 8
  %13 = alloca ptr, align 8
  %14 = alloca i32, align 4
  %15 = alloca i32, align 4
  store ptr %0, ptr %7, align 8
  store i32 %1, ptr %8, align 4
  store i32 %2, ptr %9, align 4
  store i32 %3, ptr %10, align 4
  store ptr %4, ptr %11, align 8
  store ptr %5, ptr %12, align 8
  %16 = load ptr, ptr %7, align 8
  %17 = load i32, ptr %8, align 4
  %18 = load i32, ptr %9, align 4
  call void @_ZN5Ipopt11MatrixSpaceC2Eii(ptr noundef nonnull align 8 dereferenceable(20) %16, i32 noundef %17, i32 noundef %18)
  store ptr getelementptr inbounds ({ [5 x ptr] }, ptr @_ZTVN5Ipopt15GenTMatrixSpaceE, i32 0, i32 0, i32 2), ptr %16, align 8
  %19 = getelementptr inbounds %"class.Ipopt::GenTMatrixSpace", ptr %16, i32 0, i32 1
  %20 = load i32, ptr %10, align 4
  store i32 %20, ptr %19, align 4
  %21 = getelementptr inbounds %"class.Ipopt::GenTMatrixSpace", ptr %16, i32 0, i32 2
  store ptr null, ptr %21, align 8
  %22 = getelementptr inbounds %"class.Ipopt::GenTMatrixSpace", ptr %16, i32 0, i32 3
  store ptr null, ptr %22, align 8
  %23 = load i32, ptr %10, align 4
  %24 = sext i32 %23 to i64
  %25 = call { i64, i1 } @llvm.umul.with.overflow.i64(i64 %24, i64 4)
  %26 = extractvalue { i64, i1 } %25, 1
  %27 = extractvalue { i64, i1 } %25, 0
  %28 = select i1 %26, i64 -1, i64 %27
  %29 = invoke noalias noundef nonnull ptr @_Znam(i64 noundef %28) #12
          to label %30 unwind label %69

30:                                               ; preds = %6
  %31 = getelementptr inbounds %"class.Ipopt::GenTMatrixSpace", ptr %16, i32 0, i32 3
  store ptr %29, ptr %31, align 8
  %32 = load i32, ptr %10, align 4
  %33 = sext i32 %32 to i64
  %34 = call { i64, i1 } @llvm.umul.with.overflow.i64(i64 %33, i64 4)
  %35 = extractvalue { i64, i1 } %34, 1
  %36 = extractvalue { i64, i1 } %34, 0
  %37 = select i1 %35, i64 -1, i64 %36
  %38 = invoke noalias noundef nonnull ptr @_Znam(i64 noundef %37) #12
          to label %39 unwind label %69

39:                                               ; preds = %30
  %40 = getelementptr inbounds %"class.Ipopt::GenTMatrixSpace", ptr %16, i32 0, i32 2
  store ptr %38, ptr %40, align 8
  store i32 0, ptr %15, align 4
  br label %41

41:                                               ; preds = %66, %39
  %42 = load i32, ptr %15, align 4
  %43 = load i32, ptr %10, align 4
  %44 = icmp slt i32 %42, %43
  br i1 %44, label %45, label %73

45:                                               ; preds = %41
  %46 = load ptr, ptr %11, align 8
  %47 = load i32, ptr %15, align 4
  %48 = sext i32 %47 to i64
  %49 = getelementptr inbounds i32, ptr %46, i64 %48
  %50 = load i32, ptr %49, align 4
  %51 = getelementptr inbounds %"class.Ipopt::GenTMatrixSpace", ptr %16, i32 0, i32 3
  %52 = load ptr, ptr %51, align 8
  %53 = load i32, ptr %15, align 4
  %54 = sext i32 %53 to i64
  %55 = getelementptr inbounds i32, ptr %52, i64 %54
  store i32 %50, ptr %55, align 4
  %56 = load ptr, ptr %12, align 8
  %57 = load i32, ptr %15, align 4
  %58 = sext i32 %57 to i64
  %59 = getelementptr inbounds i32, ptr %56, i64 %58
  %60 = load i32, ptr %59, align 4
  %61 = getelementptr inbounds %"class.Ipopt::GenTMatrixSpace", ptr %16, i32 0, i32 2
  %62 = load ptr, ptr %61, align 8
  %63 = load i32, ptr %15, align 4
  %64 = sext i32 %63 to i64
  %65 = getelementptr inbounds i32, ptr %62, i64 %64
  store i32 %60, ptr %65, align 4
  br label %66

66:                                               ; preds = %45
  %67 = load i32, ptr %15, align 4
  %68 = add nsw i32 %67, 1
  store i32 %68, ptr %15, align 4
  br label %41, !llvm.loop !12

69:                                               ; preds = %30, %6
  %70 = landingpad { ptr, i32 }
          cleanup
  %71 = extractvalue { ptr, i32 } %70, 0
  store ptr %71, ptr %13, align 8
  %72 = extractvalue { ptr, i32 } %70, 1
  store i32 %72, ptr %14, align 4
  call void @_ZN5Ipopt11MatrixSpaceD2Ev(ptr noundef nonnull align 8 dereferenceable(20) %16) #11
  br label %74

73:                                               ; preds = %41
  ret void

74:                                               ; preds = %69
  %75 = load ptr, ptr %13, align 8
  %76 = load i32, ptr %14, align 4
  %77 = insertvalue { ptr, i32 } poison, ptr %75, 0
  %78 = insertvalue { ptr, i32 } %77, i32 %76, 1
  resume { ptr, i32 } %78
}